target datalayout = "e-m:e-p270:32:32-p271:32:32-p272:64:64-i64:64-i128:128-f80:128-n8:16:32:64-S128"
target triple = "x86_64-pc-linux-gnu"

%struct.expert_field = type { i32, i32 }

@hf_uftp_clientkey = internal global i32 0, align 4
@hf_uftp_clientkey_func = internal global i32 0, align 4
@hf_uftp_clientkey_reserved = internal global i32 0, align 4
@hf_uftp_clientkey_keylen = internal global i32 0, align 4
@hf_uftp_clientkey_verifylen = internal global i32 0, align 4
@hf_uftp_clientkey_keyexp = internal global i32 0, align 4
@hf_uftp_clientkey_keymod = internal global i32 0, align 4
@hf_uftp_clientkey_verify = internal global i32 0, align 4
@ett_uftp_clientkey = internal global i32 0, align 4
@ei_uftp_length_invalid = internal global %struct.expert_field zeroinitializer, align 4
@.str.289 = private unnamed_addr constant [19 x i8] c"Invalid length: %d\00", align 1
@.str.291 = private unnamed_addr constant [49 x i8] c"Invalid length, len = %d, keylen=%d verifylen=%d\00", align 1

; Function Attrs: null_pointer_is_valid sspstrong uwtable
define internal void @dissect_uftp_clientkey(ptr noundef %0, ptr noundef %1, ptr noundef %2) #0 {
  %4 = alloca ptr, align 8
  %5 = alloca ptr, align 8
  %6 = alloca ptr, align 8
  %7 = alloca ptr, align 8
  %8 = alloca ptr, align 8
  %9 = alloca i32, align 4
  %10 = alloca i16, align 2
  %11 = alloca i16, align 2
  %12 = alloca i32, align 4
  store ptr %0, ptr %4, align 8
  store ptr %1, ptr %5, align 8
  store ptr %2, ptr %6, align 8
  call void @llvm.lifetime.start.p0(i64 8, ptr %7) #3
  store ptr null, ptr %7, align 8
  call void @llvm.lifetime.start.p0(i64 8, ptr %8) #3
  store ptr null, ptr %8, align 8
  call void @llvm.lifetime.start.p0(i64 4, ptr %9) #3
  store i32 0, ptr %9, align 4
  call void @llvm.lifetime.start.p0(i64 2, ptr %10) #3
  call void @llvm.lifetime.start.p0(i64 2, ptr %11) #3
  %13 = load ptr, ptr %4, align 8
  %14 = call i32 @tvb_reported_length(ptr noundef %13)
  %15 = icmp ult i32 %14, 12
  br i1 %15, label %16, label %24

16:                                               ; preds = %3
  %17 = load ptr, ptr %6, align 8
  %18 = load ptr, ptr %5, align 8
  %19 = load ptr, ptr %4, align 8
  %20 = load i32, ptr %9, align 4
  %21 = load ptr, ptr %4, align 8
  %22 = call i32 @tvb_reported_length(ptr noundef %21)
  %23 = call ptr (ptr, ptr, ptr, ptr, i32, i32, ptr, ...) @proto_tree_add_expert_format(ptr noundef %17, ptr noundef %18, ptr noundef @ei_uftp_length_invalid, ptr noundef %19, i32 noundef %20, i32 noundef -1, ptr noundef @.str.289, i32 noundef %22)
  store i32 1, ptr %12, align 4
  br label %122

24:                                               ; preds = %3
  %25 = load ptr, ptr %4, align 8
  %26 = call zeroext i16 @tvb_get_ntohs(ptr noundef %25, i32 noundef 4)
  store i16 %26, ptr %10, align 2
  %27 = load ptr, ptr %4, align 8
  %28 = call zeroext i16 @tvb_get_ntohs(ptr noundef %27, i32 noundef 6)
  store i16 %28, ptr %11, align 2
  %29 = load ptr, ptr %4, align 8
  %30 = call i32 @tvb_reported_length(ptr noundef %29)
  %31 = load i16, ptr %10, align 2
  %32 = zext i16 %31 to i32
  %33 = add i32 12, %32
  %34 = load i16, ptr %11, align 2
  %35 = zext i16 %34 to i32
  %36 = add i32 %33, %35
  %37 = icmp slt i32 %30, %36
  br i1 %37, label %38, label %50

38:                                               ; preds = %24
  %39 = load ptr, ptr %6, align 8
  %40 = load ptr, ptr %5, align 8
  %41 = load ptr, ptr %4, align 8
  %42 = load i32, ptr %9, align 4
  %43 = load ptr, ptr %4, align 8
  %44 = call i32 @tvb_reported_length(ptr noundef %43)
  %45 = load i16, ptr %10, align 2
  %46 = zext i16 %45 to i32
  %47 = load i16, ptr %11, align 2
  %48 = zext i16 %47 to i32
  %49 = call ptr (ptr, ptr, ptr, ptr, i32, i32, ptr, ...) @proto_tree_add_expert_format(ptr noundef %39, ptr noundef %40, ptr noundef @ei_uftp_length_invalid, ptr noundef %41, i32 noundef %42, i32 noundef -1, ptr noundef @.str.291, i32 noundef %44, i32 noundef %46, i32 noundef %48)
  store i32 1, ptr %12, align 4
  br label %122

50:                                               ; preds = %24
  %51 = load ptr, ptr %6, align 8
  %52 = load i32, ptr @hf_uftp_clientkey, align 4
  %53 = load ptr, ptr %4, align 8
  %54 = load i32, ptr %9, align 4
  %55 = call ptr @proto_tree_add_item(ptr noundef %51, i32 noundef %52, ptr noundef %53, i32 noundef %54, i32 noundef -1, i32 noundef 0)
  store ptr %55, ptr %7, align 8
  %56 = load ptr, ptr %7, align 8
  %57 = load i32, ptr @ett_uftp_clientkey, align 4
  %58 = call ptr @proto_item_add_subtree(ptr noundef %56, i32 noundef %57)
  store ptr %58, ptr %8, align 8
  %59 = load ptr, ptr %8, align 8
  %60 = load i32, ptr @hf_uftp_clientkey_func, align 4
  %61 = load ptr, ptr %4, align 8
  %62 = load i32, ptr %9, align 4
  %63 = call ptr @proto_tree_add_item(ptr noundef %59, i32 noundef %60, ptr noundef %61, i32 noundef %62, i32 noundef 1, i32 noundef 0)
  %64 = load i32, ptr %9, align 4
  %65 = add i32 %64, 1
  store i32 %65, ptr %9, align 4
  %66 = load ptr, ptr %8, align 8
  %67 = load i32, ptr @hf_uftp_clientkey_reserved, align 4
  %68 = load ptr, ptr %4, align 8
  %69 = load i32, ptr %9, align 4
  %70 = call ptr @proto_tree_add_item(ptr noundef %66, i32 noundef %67, ptr noundef %68, i32 noundef %69, i32 noundef 3, i32 noundef 0)
  %71 = load i32, ptr %9, align 4
  %72 = add i32 %71, 3
  store i32 %72, ptr %9, align 4
  %73 = load ptr, ptr %8, align 8
  %74 = load i32, ptr @hf_uftp_clientkey_keylen, align 4
  %75 = load ptr, ptr %4, align 8
  %76 = load i32, ptr %9, align 4
  %77 = call ptr @proto_tree_add_item(ptr noundef %73, i32 noundef %74, ptr noundef %75, i32 noundef %76, i32 noundef 2, i32 noundef 0)
  %78 = load i32, ptr %9, align 4
  %79 = add i32 %78, 2
  store i32 %79, ptr %9, align 4
  %80 = load ptr, ptr %8, align 8
  %81 = load i32, ptr @hf_uftp_clientkey_verifylen, align 4
  %82 = load ptr, ptr %4, align 8
  %83 = load i32, ptr %9, align 4
  %84 = call ptr @proto_tree_add_item(ptr noundef %80, i32 noundef %81, ptr noundef %82, i32 noundef %83, i32 noundef 2, i32 noundef 0)
  %85 = load i32, ptr %9, align 4
  %86 = add i32 %85, 2
  store i32 %86, ptr %9, align 4
  %87 = load ptr, ptr %8, align 8
  %88 = load i32, ptr @hf_uftp_clientkey_keyexp, align 4
  %89 = load ptr, ptr %4, align 8
  %90 = load i32, ptr %9, align 4
  %91 = call ptr @proto_tree_add_item(ptr noundef %87, i32 noundef %88, ptr noundef %89, i32 noundef %90, i32 noundef 4, i32 noundef 0)
  %92 = load i32, ptr %9, align 4
  %93 = add i32 %92, 4
  store i32 %93, ptr %9, align 4
  %94 = load i16, ptr %10, align 2
  %95 = zext i16 %94 to i32
  %96 = icmp sgt i32 %95, 0
  br i1 %96, label %97, label %109

97:                                               ; preds = %50
  %98 = load ptr, ptr %8, align 8
  %99 = load i32, ptr @hf_uftp_clientkey_keymod, align 4
  %100 = load ptr, ptr %4, align 8
  %101 = load i32, ptr %9, align 4
  %102 = load i16, ptr %10, align 2
  %103 = zext i16 %102 to i32
  %104 = call ptr @proto_tree_add_item(ptr noundef %98, i32 noundef %99, ptr noundef %100, i32 noundef %101, i32 noundef %103, i32 noundef 0)
  %105 = load i16, ptr %10, align 2
  %106 = zext i16 %105 to i32
  %107 = load i32, ptr %9, align 4
  %108 = add i32 %107, %106
  store i32 %108, ptr %9, align 4
  br label %109

109:                                              ; preds = %97, %50
  %110 = load i16, ptr %11, align 2
  %111 = zext i16 %110 to i32
  %112 = icmp sgt i32 %111, 0
  br i1 %112, label %113, label %121

113:                                              ; preds = %109
  %114 = load ptr, ptr %8, align 8
  %115 = load i32, ptr @hf_uftp_clientkey_verify, align 4
  %116 = load ptr, ptr %4, align 8
  %117 = load i32, ptr %9, align 4
  %118 = load i16, ptr %11, align 2
  %119 = zext i16 %118 to i32
  %120 = call ptr @proto_tree_add_item(ptr noundef %114, i32 noundef %115, ptr noundef %116, i32 noundef %117, i32 noundef %119, i32 noundef 0)
  br label %121

121:                                              ; preds = %113, %109
  store i32 0, ptr %12, align 4
  br label %122

122:                                              ; preds = %121, %38, %16
  call void @llvm.lifetime.end.p0(i64 2, ptr %11) #3
  call void @llvm.lifetime.end.p0(i64 2, ptr %10) #3
  call void @llvm.lifetime.end.p0(i64 4, ptr %9) #3
  call void @llvm.lifetime.end.p0(i64 8, ptr %8) #3
  call void @llvm.lifetime.end.p0(i64 8, ptr %7) #3
  %123 = load i32, ptr %12, align 4
  switch i32 %123, label %125 [
    i32 0, label %124
    i32 1, label %124
  ]

124:                                              ; preds = %122, %122
  ret void

125:                                              ; preds = %122
  unreachable
}